; Function Attrs: null_pointer_is_valid sspstrong uwtable
define internal range(i32 -268435456, 268435456) i32 @dissect_Target_ToSource_TransparentContainer_PDU(ptr noundef %0, ptr noundef %1, ptr noundef %2, ptr readnone captures(none) %3) #0 {
  %5 = alloca %struct._asn1_ctx_t, align 8
  %6 = alloca ptr, align 8
  %7 = alloca %struct._asn1_ctx_t, align 8
  call void @llvm.lifetime.start.p0(i64 208, ptr nonnull %7) #8
  call void @asn1_ctx_init(ptr noundef nonnull %7, i32 noundef 1, i1 noundef zeroext true, ptr noundef %1)
  %8 = load i32, ptr @hf_s1ap_Target_ToSource_TransparentContainer_PDU, align 4
  call void @llvm.lifetime.start.p0(i64 8, ptr nonnull %6) #8
  %9 = call i32 @dissect_per_octet_string(ptr noundef %0, i32 noundef 0, ptr noundef nonnull %7, ptr noundef %2, i32 noundef %8, i32 noundef -1, i32 noundef -1, i1 noundef zeroext false, ptr noundef nonnull %6)
  %10 = load i8, ptr @g_s1ap_dissect_container, align 1, !range !8, !noundef !9
  %11 = trunc nuw i8 %10 to i1
  %12 = load ptr, ptr %6, align 8
  %13 = icmp ne ptr %12, null
  %or.cond.i = select i1 %11, i1 %13, i1 false
  br i1 %or.cond.i, label %14, label %dissect_s1ap_Target_ToSource_TransparentContainer.exit

14:                                               ; preds = %4
  %15 = call i32 @tvb_reported_length(ptr noundef nonnull %12)
  %.not.i = icmp eq i32 %15, 0
  br i1 %.not.i, label %dissect_s1ap_Target_ToSource_TransparentContainer.exit, label %16

16:                                               ; preds = %14
  %17 = getelementptr inbounds nuw i8, ptr %7, i64 16
  %18 = load ptr, ptr %17, align 8
  %19 = getelementptr inbounds nuw i8, ptr %18, i64 408
  %20 = load ptr, ptr %19, align 8
  %21 = load i32, ptr @proto_s1ap, align 4
  %22 = call ptr @p_get_proto_data(ptr noundef %20, ptr noundef %18, i32 noundef %21, i32 noundef 0)
  %.not.i.i = icmp eq ptr %22, null
  br i1 %.not.i.i, label %23, label %s1ap_get_private_data.exit.i

23:                                               ; preds = %16
  %24 = load ptr, ptr %19, align 8
  %25 = call noalias dereferenceable_or_null(64) ptr @wmem_alloc0(ptr noundef %24, i64 noundef 64) #9
  %26 = load ptr, ptr %19, align 8
  %27 = load i32, ptr @proto_s1ap, align 4
  call void @p_add_proto_data(ptr noundef %26, ptr noundef %18, i32 noundef %27, i32 noundef 0, ptr noundef %25)
  br label %s1ap_get_private_data.exit.i

s1ap_get_private_data.exit.i:                     ; preds = %23, %16
  %.0.i.i = phi ptr [ %22, %16 ], [ %25, %23 ]
  %28 = getelementptr inbounds nuw i8, ptr %7, i64 24
  %29 = load ptr, ptr %28, align 8
  %30 = load i32, ptr @ett_s1ap_ToSourceTransparentContainer, align 4
  %31 = call ptr @proto_item_add_subtree(ptr noundef %29, i32 noundef %30)
  %32 = getelementptr inbounds nuw i8, ptr %.0.i.i, i64 20
  %33 = load i32, ptr %32, align 4
  switch i32 %33, label %dissect_s1ap_Target_ToSource_TransparentContainer.exit [
    i32 0, label %34
    i32 3, label %34
    i32 4, label %34
    i32 6, label %34
    i32 1, label %39
    i32 2, label %43
    i32 5, label %48
  ]

34:                                               ; preds = %s1ap_get_private_data.exit.i, %s1ap_get_private_data.exit.i, %s1ap_get_private_data.exit.i, %s1ap_get_private_data.exit.i
  %35 = load ptr, ptr %6, align 8
  %36 = load ptr, ptr %17, align 8
  call void @llvm.lifetime.start.p0(i64 208, ptr nonnull %5) #8
  call void @asn1_ctx_init(ptr noundef nonnull %5, i32 noundef 1, i1 noundef zeroext true, ptr noundef %36)
  %37 = load i32, ptr @hf_s1ap_s1ap_TargeteNB_ToSourceeNB_TransparentContainer_PDU, align 4
  %38 = call fastcc i32 @dissect_s1ap_TargeteNB_ToSourceeNB_TransparentContainer(ptr noundef %35, ptr noundef nonnull %5, ptr noundef %31, i32 noundef %37)
  call void @llvm.lifetime.end.p0(i64 208, ptr nonnull %5) #8
  br label %dissect_s1ap_Target_ToSource_TransparentContainer.exit

39:                                               ; preds = %s1ap_get_private_data.exit.i
  %40 = load ptr, ptr %6, align 8
  %41 = load ptr, ptr %17, align 8
  %42 = call i32 @dissect_ranap_TargetRNC_ToSourceRNC_TransparentContainer_PDU(ptr noundef %40, ptr noundef %41, ptr noundef %31, ptr noundef null)
  br label %dissect_s1ap_Target_ToSource_TransparentContainer.exit

43:                                               ; preds = %s1ap_get_private_data.exit.i
  %44 = load ptr, ptr %6, align 8
  %45 = load ptr, ptr %17, align 8
  %46 = call i32 @tvb_reported_length(ptr noundef %44)
  %47 = call zeroext i16 @de_bssgp_target_BSS_to_source_BSS_transp_cont(ptr noundef %44, ptr noundef %31, ptr noundef %45, i32 noundef 0, i32 noundef %46, ptr noundef null, i32 noundef 0)
  br label %dissect_s1ap_Target_ToSource_TransparentContainer.exit

48:                                               ; preds = %s1ap_get_private_data.exit.i
  %49 = load ptr, ptr %6, align 8
  %50 = load ptr, ptr %17, align 8
  %51 = call i32 @dissect_ngap_TargetNGRANNode_ToSourceNGRANNode_TransparentContainer_PDU(ptr noundef %49, ptr noundef %50, ptr noundef %31, ptr noundef null)
  br label %dissect_s1ap_Target_ToSource_TransparentContainer.exit

dissect_s1ap_Target_ToSource_TransparentContainer.exit: ; preds = %4, %14, %s1ap_get_private_data.exit.i, %34, %39, %43, %48
  call void @llvm.lifetime.end.p0(i64 8, ptr nonnull %6) #8
  %52 = add i32 %9, 7
  %53 = ashr i32 %52, 3
  call void @llvm.lifetime.end.p0(i64 208, ptr nonnull %7) #8
  ret i32 %53
}